target datalayout = "e-m:e-p270:32:32-p271:32:32-p272:64:64-i64:64-i128:128-f80:128-n8:16:32:64-S128"
target triple = "x86_64-pc-linux-gnu"

%struct.Qureg = type { i32, i32, i32, i64, i64, i32, i32, %struct.ComplexArray, %struct.ComplexArray, %struct.ComplexArray, ptr, ptr, ptr, ptr, ptr, ptr }
%struct.ComplexArray = type { ptr, ptr }
%struct.PauliHamil = type { ptr, ptr, i32, i32 }

@.str.8 = private unnamed_addr constant [69 x i8] c"Here, a multiRotatePauli with angle %.14g and paulis %s was applied.\00", align 1

; Function Attrs: nounwind uwtable
define void @applyExponentiatedPauliHamil(ptr noundef byval(%struct.Qureg) align 8 %0, ptr noundef byval(%struct.PauliHamil) align 8 %1, double noundef %2, i32 noundef %3) #0 {
  %5 = alloca double, align 8
  %6 = alloca i32, align 4
  %7 = alloca [100 x i32], align 16
  %8 = alloca [100 x i32], align 16
  %9 = alloca i32, align 4
  %10 = alloca i32, align 4
  %11 = alloca i32, align 4
  %12 = alloca i32, align 4
  %13 = alloca double, align 8
  %14 = alloca [1024 x i8], align 16
  %15 = alloca i32, align 4
  %16 = alloca i32, align 4
  %17 = alloca i32, align 4
  %18 = alloca i8, align 1
  store double %2, ptr %5, align 8, !tbaa !18
  store i32 %3, ptr %6, align 4, !tbaa !9
  call void @llvm.lifetime.start.p0(i64 400, ptr %7) #8
  call void @llvm.lifetime.start.p0(i64 400, ptr %8) #8
  call void @llvm.lifetime.start.p0(i64 4, ptr %9) #8
  store i32 0, ptr %9, align 4, !tbaa !9
  br label %19

19:                                               ; preds = %37, %4
  %20 = load i32, ptr %9, align 4, !tbaa !9
  %21 = getelementptr inbounds nuw %struct.PauliHamil, ptr %1, i32 0, i32 3
  %22 = load i32, ptr %21, align 4, !tbaa !65
  %23 = icmp slt i32 %20, %22
  br i1 %23, label %25, label %24

24:                                               ; preds = %19
  call void @llvm.lifetime.end.p0(i64 4, ptr %9) #8
  br label %40

25:                                               ; preds = %19
  %26 = load i32, ptr %9, align 4, !tbaa !9
  %27 = load i32, ptr %9, align 4, !tbaa !9
  %28 = sext i32 %27 to i64
  %29 = getelementptr inbounds [100 x i32], ptr %7, i64 0, i64 %28
  store i32 %26, ptr %29, align 4, !tbaa !9
  %30 = load i32, ptr %9, align 4, !tbaa !9
  %31 = getelementptr inbounds nuw %struct.PauliHamil, ptr %1, i32 0, i32 3
  %32 = load i32, ptr %31, align 4, !tbaa !65
  %33 = add nsw i32 %30, %32
  %34 = load i32, ptr %9, align 4, !tbaa !9
  %35 = sext i32 %34 to i64
  %36 = getelementptr inbounds [100 x i32], ptr %8, i64 0, i64 %35
  store i32 %33, ptr %36, align 4, !tbaa !9
  br label %37

37:                                               ; preds = %25
  %38 = load i32, ptr %9, align 4, !tbaa !9
  %39 = add nsw i32 %38, 1
  store i32 %39, ptr %9, align 4, !tbaa !9
  br label %19

40:                                               ; preds = %24
  call void @llvm.lifetime.start.p0(i64 4, ptr %10) #8
  store i32 0, ptr %10, align 4, !tbaa !9
  br label %41

41:                                               ; preds = %144, %40
  %42 = load i32, ptr %10, align 4, !tbaa !9
  %43 = getelementptr inbounds nuw %struct.PauliHamil, ptr %1, i32 0, i32 2
  %44 = load i32, ptr %43, align 8, !tbaa !67
  %45 = icmp slt i32 %42, %44
  br i1 %45, label %47, label %46

46:                                               ; preds = %41
  store i32 5, ptr %11, align 4
  call void @llvm.lifetime.end.p0(i64 4, ptr %10) #8
  br label %147

47:                                               ; preds = %41
  call void @llvm.lifetime.start.p0(i64 4, ptr %12) #8
  %48 = load i32, ptr %10, align 4, !tbaa !9
  store i32 %48, ptr %12, align 4, !tbaa !9
  %49 = load i32, ptr %6, align 4, !tbaa !9
  %50 = icmp ne i32 %49, 0
  br i1 %50, label %51, label %57

51:                                               ; preds = %47
  %52 = getelementptr inbounds nuw %struct.PauliHamil, ptr %1, i32 0, i32 2
  %53 = load i32, ptr %52, align 8, !tbaa !67
  %54 = sub nsw i32 %53, 1
  %55 = load i32, ptr %10, align 4, !tbaa !9
  %56 = sub nsw i32 %54, %55
  store i32 %56, ptr %12, align 4, !tbaa !9
  br label %57

57:                                               ; preds = %51, %47
  call void @llvm.lifetime.start.p0(i64 8, ptr %13) #8
  %58 = load double, ptr %5, align 8, !tbaa !18
  %59 = fmul double 2.000000e+00, %58
  %60 = getelementptr inbounds nuw %struct.PauliHamil, ptr %1, i32 0, i32 1
  %61 = load ptr, ptr %60, align 8, !tbaa !68
  %62 = load i32, ptr %12, align 4, !tbaa !9
  %63 = sext i32 %62 to i64
  %64 = getelementptr inbounds double, ptr %61, i64 %63
  %65 = load double, ptr %64, align 8, !tbaa !18
  %66 = fmul double %59, %65
  store double %66, ptr %13, align 8, !tbaa !18
  %67 = getelementptr inbounds [100 x i32], ptr %7, i64 0, i64 0
  %68 = getelementptr inbounds nuw %struct.PauliHamil, ptr %1, i32 0, i32 0
  %69 = load ptr, ptr %68, align 8, !tbaa !69
  %70 = load i32, ptr %12, align 4, !tbaa !9
  %71 = getelementptr inbounds nuw %struct.PauliHamil, ptr %1, i32 0, i32 3
  %72 = load i32, ptr %71, align 4, !tbaa !65
  %73 = mul nsw i32 %70, %72
  %74 = sext i32 %73 to i64
  %75 = getelementptr inbounds i32, ptr %69, i64 %74
  %76 = getelementptr inbounds nuw %struct.PauliHamil, ptr %1, i32 0, i32 3
  %77 = load i32, ptr %76, align 4, !tbaa !65
  %78 = load double, ptr %13, align 8, !tbaa !18
  call void @statevec_multiRotatePauli(ptr noundef byval(%struct.Qureg) align 8 %0, ptr noundef %67, ptr noundef %75, i32 noundef %77, double noundef %78, i32 noundef 0)
  %79 = getelementptr inbounds nuw %struct.Qureg, ptr %0, i32 0, i32 0
  %80 = load i32, ptr %79, align 8, !tbaa !54
  %81 = icmp ne i32 %80, 0
  br i1 %81, label %82, label %95

82:                                               ; preds = %57
  %83 = getelementptr inbounds [100 x i32], ptr %8, i64 0, i64 0
  %84 = getelementptr inbounds nuw %struct.PauliHamil, ptr %1, i32 0, i32 0
  %85 = load ptr, ptr %84, align 8, !tbaa !69
  %86 = load i32, ptr %12, align 4, !tbaa !9
  %87 = getelementptr inbounds nuw %struct.PauliHamil, ptr %1, i32 0, i32 3
  %88 = load i32, ptr %87, align 4, !tbaa !65
  %89 = mul nsw i32 %86, %88
  %90 = sext i32 %89 to i64
  %91 = getelementptr inbounds i32, ptr %85, i64 %90
  %92 = getelementptr inbounds nuw %struct.PauliHamil, ptr %1, i32 0, i32 3
  %93 = load i32, ptr %92, align 4, !tbaa !65
  %94 = load double, ptr %13, align 8, !tbaa !18
  call void @statevec_multiRotatePauli(ptr noundef byval(%struct.Qureg) align 8 %0, ptr noundef %83, ptr noundef %91, i32 noundef %93, double noundef %94, i32 noundef 1)
  br label %95

95:                                               ; preds = %82, %57
  call void @llvm.lifetime.start.p0(i64 1024, ptr %14) #8
  call void @llvm.lifetime.start.p0(i64 4, ptr %15) #8
  store i32 0, ptr %15, align 4, !tbaa !9
  call void @llvm.lifetime.start.p0(i64 4, ptr %16) #8
  store i32 0, ptr %16, align 4, !tbaa !9
  br label %96

96:                                               ; preds = %135, %95
  %97 = load i32, ptr %16, align 4, !tbaa !9
  %98 = getelementptr inbounds nuw %struct.PauliHamil, ptr %1, i32 0, i32 3
  %99 = load i32, ptr %98, align 4, !tbaa !65
  %100 = icmp slt i32 %97, %99
  br i1 %100, label %102, label %101

101:                                              ; preds = %96
  store i32 8, ptr %11, align 4
  call void @llvm.lifetime.end.p0(i64 4, ptr %16) #8
  br label %138

102:                                              ; preds = %96
  call void @llvm.lifetime.start.p0(i64 4, ptr %17) #8
  %103 = getelementptr inbounds nuw %struct.PauliHamil, ptr %1, i32 0, i32 0
  %104 = load ptr, ptr %103, align 8, !tbaa !69
  %105 = load i32, ptr %16, align 4, !tbaa !9
  %106 = load i32, ptr %12, align 4, !tbaa !9
  %107 = getelementptr inbounds nuw %struct.PauliHamil, ptr %1, i32 0, i32 3
  %108 = load i32, ptr %107, align 4, !tbaa !65
  %109 = mul nsw i32 %106, %108
  %110 = add nsw i32 %105, %109
  %111 = sext i32 %110 to i64
  %112 = getelementptr inbounds i32, ptr %104, i64 %111
  %113 = load i32, ptr %112, align 4, !tbaa !9
  store i32 %113, ptr %17, align 4, !tbaa !9
  call void @llvm.lifetime.start.p0(i64 1, ptr %18) #8
  store i8 73, ptr %18, align 1, !tbaa !36
  %114 = load i32, ptr %17, align 4, !tbaa !9
  %115 = icmp eq i32 %114, 1
  br i1 %115, label %116, label %117

116:                                              ; preds = %102
  store i8 88, ptr %18, align 1, !tbaa !36
  br label %117

117:                                              ; preds = %116, %102
  %118 = load i32, ptr %17, align 4, !tbaa !9
  %119 = icmp eq i32 %118, 2
  br i1 %119, label %120, label %121

120:                                              ; preds = %117
  store i8 89, ptr %18, align 1, !tbaa !36
  br label %121

121:                                              ; preds = %120, %117
  %122 = load i32, ptr %17, align 4, !tbaa !9
  %123 = icmp eq i32 %122, 3
  br i1 %123, label %124, label %125

124:                                              ; preds = %121
  store i8 90, ptr %18, align 1, !tbaa !36
  br label %125

125:                                              ; preds = %124, %121
  %126 = load i8, ptr %18, align 1, !tbaa !36
  %127 = load i32, ptr %15, align 4, !tbaa !9
  %128 = add nsw i32 %127, 1
  store i32 %128, ptr %15, align 4, !tbaa !9
  %129 = sext i32 %127 to i64
  %130 = getelementptr inbounds [1024 x i8], ptr %14, i64 0, i64 %129
  store i8 %126, ptr %130, align 1, !tbaa !36
  %131 = load i32, ptr %15, align 4, !tbaa !9
  %132 = add nsw i32 %131, 1
  store i32 %132, ptr %15, align 4, !tbaa !9
  %133 = sext i32 %131 to i64
  %134 = getelementptr inbounds [1024 x i8], ptr %14, i64 0, i64 %133
  store i8 32, ptr %134, align 1, !tbaa !36
  call void @llvm.lifetime.end.p0(i64 1, ptr %18) #8
  call void @llvm.lifetime.end.p0(i64 4, ptr %17) #8
  br label %135

135:                                              ; preds = %125
  %136 = load i32, ptr %16, align 4, !tbaa !9
  %137 = add nsw i32 %136, 1
  store i32 %137, ptr %16, align 4, !tbaa !9
  br label %96

138:                                              ; preds = %101
  %139 = load i32, ptr %15, align 4, !tbaa !9
  %140 = sext i32 %139 to i64
  %141 = getelementptr inbounds [1024 x i8], ptr %14, i64 0, i64 %140
  store i8 0, ptr %141, align 1, !tbaa !36
  %142 = load double, ptr %13, align 8, !tbaa !18
  %143 = getelementptr inbounds [1024 x i8], ptr %14, i64 0, i64 0
  call void (ptr, ptr, ...) @qasm_recordComment(ptr noundef byval(%struct.Qureg) align 8 %0, ptr noundef @.str.8, double noundef %142, ptr noundef %143)
  call void @llvm.lifetime.end.p0(i64 4, ptr %15) #8
  call void @llvm.lifetime.end.p0(i64 1024, ptr %14) #8
  call void @llvm.lifetime.end.p0(i64 8, ptr %13) #8
  call void @llvm.lifetime.end.p0(i64 4, ptr %12) #8
  br label %144

144:                                              ; preds = %138
  %145 = load i32, ptr %10, align 4, !tbaa !9
  %146 = add nsw i32 %145, 1
  store i32 %146, ptr %10, align 4, !tbaa !9
  br label %41

147:                                              ; preds = %46
  call void @llvm.lifetime.end.p0(i64 400, ptr %8) #8
  call void @llvm.lifetime.end.p0(i64 400, ptr %7) #8
  ret void
}