; Function Attrs: nounwind uwtable
define void @applyExponentiatedPauliHamil(ptr noundef readonly byval(%struct.Qureg) align 8 captures(none) %0, ptr noundef readonly byval(%struct.PauliHamil) align 8 captures(none) %1, double noundef %2, i32 noundef %3) local_unnamed_addr #11 {
  %5 = alloca [100 x i32], align 16
  %6 = alloca [100 x i32], align 16
  %7 = alloca [1024 x i8], align 16
  call void @llvm.lifetime.start.p0(i64 400, ptr nonnull %5) #22
  call void @llvm.lifetime.start.p0(i64 400, ptr nonnull %6) #22
  %8 = getelementptr inbounds nuw i8, ptr %1, i64 20
  %9 = load i32, ptr %8, align 4, !tbaa !50
  %.fr47 = freeze i32 %9
  %10 = icmp sgt i32 %.fr47, 0
  br i1 %10, label %.lr.ph.preheader, label %.preheader

.lr.ph.preheader:                                 ; preds = %4
  %11 = zext nneg i32 %.fr47 to i64
  br label %.lr.ph

.preheader:                                       ; preds = %.lr.ph, %4
  %12 = getelementptr inbounds nuw i8, ptr %1, i64 16
  %13 = load i32, ptr %12, align 8, !tbaa !52
  %14 = icmp sgt i32 %13, 0
  br i1 %14, label %.lr.ph43, label %._crit_edge44

.lr.ph43:                                         ; preds = %.preheader
  %.not = icmp eq i32 %3, 0
  %15 = fmul double %2, 2.000000e+00
  %16 = getelementptr inbounds nuw i8, ptr %1, i64 8
  %17 = load ptr, ptr %16, align 8, !tbaa !53
  %18 = load ptr, ptr %1, align 8, !tbaa !54
  %19 = load i32, ptr %0, align 8
  %.fr = freeze i32 %19
  %.not36 = icmp eq i32 %.fr, 0
  br i1 %10, label %.lr.ph43.split.us.preheader, label %.lr.ph43.split

.lr.ph43.split.us.preheader:                      ; preds = %.lr.ph43
  %wide.trip.count70 = zext nneg i32 %.fr47 to i64
  br label %.lr.ph43.split.us

.lr.ph43.split.us:                                ; preds = %.lr.ph43.split.us.preheader, %._crit_edge.us
  %.03042.us = phi i32 [ %40, %._crit_edge.us ], [ 0, %.lr.ph43.split.us.preheader ]
  %20 = xor i32 %.03042.us, -1
  %21 = add nsw i32 %13, %20
  %.033.us = select i1 %.not, i32 %.03042.us, i32 %21
  %22 = sext i32 %.033.us to i64
  %23 = getelementptr inbounds double, ptr %17, i64 %22
  %24 = load double, ptr %23, align 8, !tbaa !13
  %25 = fmul double %15, %24
  %26 = mul nsw i32 %.033.us, %.fr47
  %27 = sext i32 %26 to i64
  %28 = getelementptr inbounds i32, ptr %18, i64 %27
  call void @statevec_multiRotatePauli(ptr noundef nonnull byval(%struct.Qureg) align 8 %0, ptr noundef nonnull %5, ptr noundef %28, i32 noundef %.fr47, double noundef %25, i32 noundef 0)
  br i1 %.not36, label %.lr.ph40.us, label %29

29:                                               ; preds = %.lr.ph43.split.us
  call void @statevec_multiRotatePauli(ptr noundef nonnull byval(%struct.Qureg) align 8 %0, ptr noundef nonnull %6, ptr noundef %28, i32 noundef %.fr47, double noundef %25, i32 noundef 1)
  br label %.lr.ph40.us

.lr.ph40.us:                                      ; preds = %29, %.lr.ph43.split.us
  call void @llvm.lifetime.start.p0(i64 1024, ptr nonnull %7) #22
  %invariant.gep = getelementptr i32, ptr %18, i64 %27
  br label %30

30:                                               ; preds = %.lr.ph40.us, %30
  %indvars.iv65 = phi i64 [ 0, %.lr.ph40.us ], [ %indvars.iv.next66, %30 ]
  %indvars.iv63 = phi i64 [ 0, %.lr.ph40.us ], [ %indvars.iv.next64, %30 ]
  %gep = getelementptr i32, ptr %invariant.gep, i64 %indvars.iv63
  %31 = load i32, ptr %gep, align 4, !tbaa !4
  %32 = icmp eq i32 %31, 1
  %spec.store.select.us = select i1 %32, i8 88, i8 73
  %33 = icmp eq i32 %31, 2
  %spec.store.select1.us = select i1 %33, i8 89, i8 %spec.store.select.us
  %34 = icmp eq i32 %31, 3
  %spec.store.select2.us = select i1 %34, i8 90, i8 %spec.store.select1.us
  %35 = or disjoint i64 %indvars.iv65, 1
  %36 = getelementptr inbounds nuw [1024 x i8], ptr %7, i64 0, i64 %indvars.iv65
  store i8 %spec.store.select2.us, ptr %36, align 2, !tbaa !24
  %indvars.iv.next66 = add nuw nsw i64 %indvars.iv65, 2
  %37 = getelementptr inbounds nuw [1024 x i8], ptr %7, i64 0, i64 %35
  store i8 32, ptr %37, align 1, !tbaa !24
  %indvars.iv.next64 = add nuw nsw i64 %indvars.iv63, 1
  %exitcond71.not = icmp eq i64 %indvars.iv.next64, %wide.trip.count70
  br i1 %exitcond71.not, label %._crit_edge.us, label %30

._crit_edge.us:                                   ; preds = %30
  %38 = and i64 %indvars.iv.next66, 4294967294
  %39 = getelementptr inbounds nuw [1024 x i8], ptr %7, i64 0, i64 %38
  store i8 0, ptr %39, align 2, !tbaa !24
  call void (ptr, ptr, ...) @qasm_recordComment(ptr noundef nonnull byval(%struct.Qureg) align 8 %0, ptr noundef nonnull @.str.8, double noundef %25, ptr noundef nonnull %7) #22
  call void @llvm.lifetime.end.p0(i64 1024, ptr nonnull %7) #22
  %40 = add nuw nsw i32 %.03042.us, 1
  %exitcond72.not = icmp eq i32 %40, %13
  br i1 %exitcond72.not, label %._crit_edge44, label %.lr.ph43.split.us

.lr.ph43.split:                                   ; preds = %.lr.ph43
  br i1 %.not36, label %.lr.ph43.split.split.us, label %.lr.ph43.split.split

.lr.ph43.split.split.us:                          ; preds = %.lr.ph43.split
  br i1 %.not, label %.lr.ph43.split.split.us.split.us.preheader, label %.lr.ph43.split.split.us.split.preheader

.lr.ph43.split.split.us.split.preheader:          ; preds = %.lr.ph43.split.split.us
  %41 = zext nneg i32 %13 to i64
  %42 = sext i32 %.fr47 to i64
  %wide.trip.count56 = zext nneg i32 %13 to i64
  br label %.lr.ph43.split.split.us.split

.lr.ph43.split.split.us.split.us.preheader:       ; preds = %.lr.ph43.split.split.us
  %43 = sext i32 %.fr47 to i64
  %wide.trip.count61 = zext nneg i32 %13 to i64
  br label %.lr.ph43.split.split.us.split.us

.lr.ph43.split.split.us.split.us:                 ; preds = %.lr.ph43.split.split.us.split.us.preheader, %.lr.ph43.split.split.us.split.us
  %indvars.iv58 = phi i64 [ 0, %.lr.ph43.split.split.us.split.us.preheader ], [ %indvars.iv.next59, %.lr.ph43.split.split.us.split.us ]
  %44 = getelementptr inbounds nuw double, ptr %17, i64 %indvars.iv58
  %45 = load double, ptr %44, align 8, !tbaa !13
  %46 = fmul double %15, %45
  %47 = mul nsw i64 %indvars.iv58, %43
  %48 = getelementptr inbounds i32, ptr %18, i64 %47
  call void @statevec_multiRotatePauli(ptr noundef nonnull byval(%struct.Qureg) align 8 %0, ptr noundef nonnull %5, ptr noundef %48, i32 noundef %.fr47, double noundef %46, i32 noundef 0)
  call void @llvm.lifetime.start.p0(i64 1024, ptr nonnull %7) #22
  store i8 0, ptr %7, align 16, !tbaa !24
  call void (ptr, ptr, ...) @qasm_recordComment(ptr noundef nonnull byval(%struct.Qureg) align 8 %0, ptr noundef nonnull @.str.8, double noundef %46, ptr noundef nonnull %7) #22
  call void @llvm.lifetime.end.p0(i64 1024, ptr nonnull %7) #22
  %indvars.iv.next59 = add nuw nsw i64 %indvars.iv58, 1
  %exitcond62.not = icmp eq i64 %indvars.iv.next59, %wide.trip.count61
  br i1 %exitcond62.not, label %._crit_edge44, label %.lr.ph43.split.split.us.split.us

.lr.ph43.split.split.us.split:                    ; preds = %.lr.ph43.split.split.us.split.preheader, %.lr.ph43.split.split.us.split
  %indvars.iv53 = phi i64 [ 0, %.lr.ph43.split.split.us.split.preheader ], [ %indvars.iv.next54, %.lr.ph43.split.split.us.split ]
  %49 = xor i64 %indvars.iv53, -1
  %50 = add nsw i64 %41, %49
  %51 = getelementptr inbounds double, ptr %17, i64 %50
  %52 = load double, ptr %51, align 8, !tbaa !13
  %53 = fmul double %15, %52
  %54 = mul nsw i64 %50, %42
  %55 = getelementptr inbounds i32, ptr %18, i64 %54
  call void @statevec_multiRotatePauli(ptr noundef nonnull byval(%struct.Qureg) align 8 %0, ptr noundef nonnull %5, ptr noundef %55, i32 noundef %.fr47, double noundef %53, i32 noundef 0)
  call void @llvm.lifetime.start.p0(i64 1024, ptr nonnull %7) #22
  store i8 0, ptr %7, align 16, !tbaa !24
  call void (ptr, ptr, ...) @qasm_recordComment(ptr noundef nonnull byval(%struct.Qureg) align 8 %0, ptr noundef nonnull @.str.8, double noundef %53, ptr noundef nonnull %7) #22
  call void @llvm.lifetime.end.p0(i64 1024, ptr nonnull %7) #22
  %indvars.iv.next54 = add nuw nsw i64 %indvars.iv53, 1
  %exitcond57.not = icmp eq i64 %indvars.iv.next54, %wide.trip.count56
  br i1 %exitcond57.not, label %._crit_edge44, label %.lr.ph43.split.split.us.split

.lr.ph:                                           ; preds = %.lr.ph.preheader, %.lr.ph
  %indvars.iv = phi i64 [ 0, %.lr.ph.preheader ], [ %indvars.iv.next, %.lr.ph ]
  %56 = getelementptr inbounds nuw [100 x i32], ptr %5, i64 0, i64 %indvars.iv
  %57 = trunc nuw nsw i64 %indvars.iv to i32
  store i32 %57, ptr %56, align 4, !tbaa !4
  %58 = getelementptr inbounds nuw [100 x i32], ptr %6, i64 0, i64 %indvars.iv
  %59 = trunc i64 %indvars.iv to i32
  %60 = add i32 %.fr47, %59
  store i32 %60, ptr %58, align 4, !tbaa !4
  %indvars.iv.next = add nuw nsw i64 %indvars.iv, 1
  %exitcond.not = icmp eq i64 %indvars.iv.next, %11
  br i1 %exitcond.not, label %.preheader, label %.lr.ph

._crit_edge44:                                    ; preds = %.lr.ph43.split.split, %.lr.ph43.split.split.us.split, %.lr.ph43.split.split.us.split.us, %._crit_edge.us, %.preheader
  call void @llvm.lifetime.end.p0(i64 400, ptr nonnull %6) #22
  call void @llvm.lifetime.end.p0(i64 400, ptr nonnull %5) #22
  ret void

.lr.ph43.split.split:                             ; preds = %.lr.ph43.split, %.lr.ph43.split.split
  %.03042 = phi i32 [ %70, %.lr.ph43.split.split ], [ 0, %.lr.ph43.split ]
  %61 = xor i32 %.03042, -1
  %62 = add nsw i32 %13, %61
  %.033 = select i1 %.not, i32 %.03042, i32 %62
  %63 = sext i32 %.033 to i64
  %64 = getelementptr inbounds double, ptr %17, i64 %63
  %65 = load double, ptr %64, align 8, !tbaa !13
  %66 = fmul double %15, %65
  %67 = mul nsw i32 %.033, %.fr47
  %68 = sext i32 %67 to i64
  %69 = getelementptr inbounds i32, ptr %18, i64 %68
  call void @statevec_multiRotatePauli(ptr noundef nonnull byval(%struct.Qureg) align 8 %0, ptr noundef nonnull %5, ptr noundef %69, i32 noundef %.fr47, double noundef %66, i32 noundef 0)
  call void @statevec_multiRotatePauli(ptr noundef nonnull byval(%struct.Qureg) align 8 %0, ptr noundef nonnull %6, ptr noundef %69, i32 noundef %.fr47, double noundef %66, i32 noundef 1)
  call void @llvm.lifetime.start.p0(i64 1024, ptr nonnull %7) #22
  store i8 0, ptr %7, align 16, !tbaa !24
  call void (ptr, ptr, ...) @qasm_recordComment(ptr noundef nonnull byval(%struct.Qureg) align 8 %0, ptr noundef nonnull @.str.8, double noundef %66, ptr noundef nonnull %7) #22
  call void @llvm.lifetime.end.p0(i64 1024, ptr nonnull %7) #22
  %70 = add nuw nsw i32 %.03042, 1
  %exitcond52.not = icmp eq i32 %70, %13
  br i1 %exitcond52.not, label %._crit_edge44, label %.lr.ph43.split.split
}